; Function Attrs: nounwind uwtable
define ptr @evp_keymgmt_import_types(ptr noundef readonly captures(none) %0, i32 noundef %1) local_unnamed_addr #0 {
  %3 = getelementptr inbounds nuw i8, ptr %0, i64 32
  %4 = load ptr, ptr %3, align 8, !tbaa !17
  %5 = tail call ptr @ossl_provider_ctx(ptr noundef %4) #5
  %6 = getelementptr inbounds nuw i8, ptr %0, i64 216
  %7 = load ptr, ptr %6, align 8, !tbaa !45
  %.not = icmp eq ptr %7, null
  br i1 %.not, label %10, label %8

8:                                                ; preds = %2
  %9 = tail call ptr %7(ptr noundef %5, i32 noundef %1) #5
  br label %16

10:                                               ; preds = %2
  %11 = getelementptr inbounds nuw i8, ptr %0, i64 208
  %12 = load ptr, ptr %11, align 8, !tbaa !44
  %13 = icmp eq ptr %12, null
  br i1 %13, label %16, label %14

14:                                               ; preds = %10
  %15 = tail call ptr %12(i32 noundef %1) #5
  br label %16

16:                                               ; preds = %10, %14, %8
  %.0 = phi ptr [ %9, %8 ], [ %15, %14 ], [ null, %10 ]
  ret ptr %.0
}